target datalayout = "e-m:e-p270:32:32-p271:32:32-p272:64:64-i64:64-i128:128-f80:128-n8:16:32:64-S128"
target triple = "x86_64-pc-linux-gnu"

@param_table = internal global ptr null, align 8

; Function Attrs: nounwind uwtable
define hidden i32 @X509_VERIFY_PARAM_get_count() #0 {
  %1 = alloca i32, align 4
  call void @llvm.lifetime.start.p0(i64 4, ptr %1) #7
  store i32 5, ptr %1, align 4, !tbaa !35
  %2 = load ptr, ptr @param_table, align 8, !tbaa !49
  %3 = icmp ne ptr %2, null
  br i1 %3, label %4, label %11

4:                                                ; preds = %0
  %5 = load ptr, ptr @param_table, align 8, !tbaa !49
  %6 = call i64 @sk_num(ptr noundef %5)
  %7 = load i32, ptr %1, align 4, !tbaa !35
  %8 = sext i32 %7 to i64
  %9 = add i64 %8, %6
  %10 = trunc i64 %9 to i32
  store i32 %10, ptr %1, align 4, !tbaa !35
  br label %11

11:                                               ; preds = %4, %0
  %12 = load i32, ptr %1, align 4, !tbaa !35
  call void @llvm.lifetime.end.p0(i64 4, ptr %1) #7
  ret i32 %12
}